target datalayout = "e-m:e-p270:32:32-p271:32:32-p272:64:64-i64:64-i128:128-f80:128-n8:16:32:64-S128"
target triple = "x86_64-pc-linux-gnu"

%"class.llvm::SmallVectorBase" = type { ptr, i32, i32 }
%"class.llvm::SmallVector" = type { %"class.llvm::SmallVectorImpl" }
%"class.llvm::SmallVectorImpl" = type { %"class.llvm::SmallVectorTemplateBase" }
%"class.llvm::SmallVectorTemplateBase" = type { %"class.llvm::SmallVectorTemplateCommon" }
%"class.llvm::SmallVectorTemplateCommon" = type { %"class.llvm::SmallVectorBase" }
%"class.llvm::MCAsmParser" = type <{ ptr, ptr, %"class.llvm::SmallVector", i8, i8, [6 x i8] }>

; Function Attrs: mustprogress nounwind uwtable
define linkonce_odr hidden noundef nonnull align 8 dereferenceable(304) ptr @_ZNK4llvm11MCAsmParser15getTargetParserEv(ptr noundef nonnull align 8 dereferenceable(34) %0) #0 comdat align 2 {
  %2 = alloca ptr, align 8
  store ptr %0, ptr %2, align 8
  %3 = load ptr, ptr %2, align 8
  %4 = getelementptr inbounds nuw %"class.llvm::MCAsmParser", ptr %3, i32 0, i32 1
  %5 = load ptr, ptr %4, align 8
  ret ptr %5
}

; Function Attrs: mustprogress nounwind uwtable
define internal noundef zeroext i1 @_ZN12_GLOBAL__N_110MasmParser15parseExpressionERPKN4llvm6MCExprERNS1_5SMLocE(ptr noundef nonnull align 8 dereferenceable(1144) %0, ptr noundef nonnull align 8 dereferenceable(8) %1, ptr noundef nonnull align 8 dereferenceable(8) %2) unnamed_addr #0 align 2 {
  %4 = alloca i1, align 1
  %5 = alloca ptr, align 8
  %6 = alloca ptr, align 8
  %7 = alloca ptr, align 8
  %8 = alloca i64, align 8
  store ptr %0, ptr %5, align 8
  store ptr %1, ptr %6, align 8
  store ptr %2, ptr %7, align 8
  %9 = load ptr, ptr %5, align 8
  %10 = load ptr, ptr %6, align 8
  store ptr null, ptr %10, align 8
  %11 = call noundef nonnull align 8 dereferenceable(304) ptr @_ZNK4llvm11MCAsmParser15getTargetParserEv(ptr noundef nonnull align 8 dereferenceable(34) %9)
  %12 = load ptr, ptr %6, align 8
  %13 = load ptr, ptr %7, align 8
  %14 = load ptr, ptr %11, align 8
  %15 = getelementptr inbounds ptr, ptr %14, i64 3
  %16 = load ptr, ptr %15, align 8
  %17 = call noundef zeroext i1 %16(ptr noundef nonnull align 8 dereferenceable(304) %11, ptr noundef nonnull align 8 dereferenceable(8) %12, ptr noundef nonnull align 8 dereferenceable(8) %13)
  br i1 %17, label %22, label %18

18:                                               ; preds = %3
  %19 = load ptr, ptr %6, align 8
  %20 = load ptr, ptr %7, align 8
  %21 = call noundef zeroext i1 @_ZN12_GLOBAL__N_110MasmParser13parseBinOpRHSEjRPKN4llvm6MCExprERNS1_5SMLocE(ptr noundef nonnull align 8 dereferenceable(1144) %9, i32 noundef 1, ptr noundef nonnull align 8 dereferenceable(8) %19, ptr noundef nonnull align 8 dereferenceable(8) %20)
  br i1 %21, label %22, label %23

22:                                               ; preds = %18, %3
  store i1 true, ptr %4, align 1
  br label %36

23:                                               ; preds = %18
  %24 = load ptr, ptr %6, align 8
  %25 = load ptr, ptr %24, align 8
  %26 = call noundef zeroext i1 @_ZNK4llvm6MCExpr18evaluateAsAbsoluteERl(ptr noundef nonnull align 8 dereferenceable(16) %25, ptr noundef nonnull align 8 dereferenceable(8) %8)
  br i1 %26, label %27, label %35

27:                                               ; preds = %23
  %28 = load i64, ptr %8, align 8
  %29 = load ptr, ptr %9, align 8
  %30 = getelementptr inbounds ptr, ptr %29, i64 6
  %31 = load ptr, ptr %30, align 8
  %32 = call noundef nonnull align 8 dereferenceable(2432) ptr %31(ptr noundef nonnull align 8 dereferenceable(1144) %9)
  %33 = call noundef ptr @_ZN4llvm14MCConstantExpr6createElRNS_9MCContextEbj(i64 noundef %28, ptr noundef nonnull align 8 dereferenceable(2432) %32, i1 noundef zeroext false, i32 noundef 0)
  %34 = load ptr, ptr %6, align 8
  store ptr %33, ptr %34, align 8
  br label %35

35:                                               ; preds = %27, %23
  store i1 false, ptr %4, align 1
  br label %36

36:                                               ; preds = %35, %22
  %37 = load i1, ptr %4, align 1
  ret i1 %37
}