; Function Attrs: mustprogress nounwind uwtable
define internal noundef zeroext i1 @_ZN12_GLOBAL__N_110MasmParser15parseExpressionERPKN4llvm6MCExprERNS1_5SMLocE(ptr noundef nonnull align 8 dereferenceable(1144) %0, ptr noundef nonnull align 8 dereferenceable(8) initializes((0, 8)) %1, ptr noundef nonnull align 8 dereferenceable(8) %2) unnamed_addr #0 align 2 {
  %4 = alloca i64, align 8
  store ptr null, ptr %1, align 8
  %5 = getelementptr inbounds nuw i8, ptr %0, i64 8
  %6 = load ptr, ptr %5, align 8
  %7 = load ptr, ptr %6, align 8
  %8 = getelementptr inbounds nuw i8, ptr %7, i64 24
  %9 = load ptr, ptr %8, align 8
  %10 = tail call noundef zeroext i1 %9(ptr noundef nonnull align 8 dereferenceable(304) %6, ptr noundef nonnull align 8 dereferenceable(8) %1, ptr noundef nonnull align 8 dereferenceable(8) %2) #24
  br i1 %10, label %23, label %11

11:                                               ; preds = %3
  %12 = tail call fastcc noundef zeroext i1 @_ZN12_GLOBAL__N_110MasmParser13parseBinOpRHSEjRPKN4llvm6MCExprERNS1_5SMLocE(ptr noundef nonnull align 8 dereferenceable(1144) %0, i32 noundef 1, ptr noundef nonnull align 8 dereferenceable(8) %1, ptr noundef nonnull align 8 dereferenceable(8) %2)
  br i1 %12, label %23, label %13

13:                                               ; preds = %11
  %14 = load ptr, ptr %1, align 8
  %15 = call noundef zeroext i1 @_ZNK4llvm6MCExpr18evaluateAsAbsoluteERl(ptr noundef nonnull align 8 dereferenceable(16) %14, ptr noundef nonnull align 8 dereferenceable(8) %4) #24
  br i1 %15, label %16, label %23

16:                                               ; preds = %13
  %17 = load i64, ptr %4, align 8
  %18 = load ptr, ptr %0, align 8
  %19 = getelementptr inbounds nuw i8, ptr %18, i64 48
  %20 = load ptr, ptr %19, align 8
  %21 = call noundef nonnull align 8 dereferenceable(2432) ptr %20(ptr noundef nonnull align 8 dereferenceable(1144) %0) #24
  %22 = call noundef ptr @_ZN4llvm14MCConstantExpr6createElRNS_9MCContextEbj(i64 noundef %17, ptr noundef nonnull align 8 dereferenceable(2432) %21, i1 noundef zeroext false, i32 noundef 0) #24
  store ptr %22, ptr %1, align 8
  br label %23

23:                                               ; preds = %13, %16, %3, %11
  %.0 = phi i1 [ true, %11 ], [ true, %3 ], [ false, %16 ], [ false, %13 ]
  ret i1 %.0
}